target datalayout = "e-m:e-p270:32:32-p271:32:32-p272:64:64-i64:64-i128:128-f80:128-n8:16:32:64-S128"
target triple = "x86_64-pc-linux-gnu"

%struct.black_TWorker_ = type { i32, i32, i32, i32, i32, ptr, ptr, ptr, ptr, i32, i8, i64, i64, i64, i64, i16, i32, ptr, ptr, ptr, i32, %struct.FT_Outline_, i32, i32, i32, ptr, ptr, ptr, ptr, ptr, ptr }
%struct.FT_Outline_ = type { i16, i16, ptr, ptr, ptr, i32 }
%struct.FT_Raster_Params_ = type { ptr, ptr, i32, ptr, ptr, ptr, ptr, ptr, %struct.FT_BBox_ }
%struct.FT_BBox_ = type { i64, i64, i64, i64 }
%struct.FT_Bitmap_ = type { i32, i32, i32, ptr, i16, i8, i8, ptr }

; Function Attrs: nounwind uwtable
define internal i32 @ft_black_render(ptr noundef %0, ptr noundef %1) #0 {
  %3 = alloca i32, align 4
  %4 = alloca ptr, align 8
  %5 = alloca ptr, align 8
  %6 = alloca ptr, align 8
  %7 = alloca ptr, align 8
  %8 = alloca [1 x %struct.black_TWorker_], align 16
  %9 = alloca i32, align 4
  store ptr %0, ptr %4, align 8, !tbaa !19
  store ptr %1, ptr %5, align 8, !tbaa !25
  call void @llvm.lifetime.start.p0(i64 8, ptr %6) #5
  %10 = load ptr, ptr %5, align 8, !tbaa !25
  %11 = getelementptr inbounds nuw %struct.FT_Raster_Params_, ptr %10, i32 0, i32 1
  %12 = load ptr, ptr %11, align 8, !tbaa !27
  store ptr %12, ptr %6, align 8, !tbaa !31
  call void @llvm.lifetime.start.p0(i64 8, ptr %7) #5
  %13 = load ptr, ptr %5, align 8, !tbaa !25
  %14 = getelementptr inbounds nuw %struct.FT_Raster_Params_, ptr %13, i32 0, i32 0
  %15 = load ptr, ptr %14, align 8, !tbaa !33
  store ptr %15, ptr %7, align 8, !tbaa !34
  call void @llvm.lifetime.start.p0(i64 240, ptr %8) #5
  %16 = load ptr, ptr %4, align 8, !tbaa !19
  %17 = icmp ne ptr %16, null
  br i1 %17, label %19, label %18

18:                                               ; preds = %2
  store i32 96, ptr %3, align 4
  store i32 1, ptr %9, align 4
  br label %147

19:                                               ; preds = %2
  %20 = load ptr, ptr %6, align 8, !tbaa !31
  %21 = icmp ne ptr %20, null
  br i1 %21, label %23, label %22

22:                                               ; preds = %19
  store i32 20, ptr %3, align 4
  store i32 1, ptr %9, align 4
  br label %147

23:                                               ; preds = %19
  %24 = load ptr, ptr %6, align 8, !tbaa !31
  %25 = getelementptr inbounds nuw %struct.FT_Outline_, ptr %24, i32 0, i32 1
  %26 = load i16, ptr %25, align 2, !tbaa !35
  %27 = zext i16 %26 to i32
  %28 = icmp eq i32 %27, 0
  br i1 %28, label %35, label %29

29:                                               ; preds = %23
  %30 = load ptr, ptr %6, align 8, !tbaa !31
  %31 = getelementptr inbounds nuw %struct.FT_Outline_, ptr %30, i32 0, i32 0
  %32 = load i16, ptr %31, align 8, !tbaa !40
  %33 = zext i16 %32 to i32
  %34 = icmp eq i32 %33, 0
  br i1 %34, label %35, label %36

35:                                               ; preds = %29, %23
  store i32 0, ptr %3, align 4
  store i32 1, ptr %9, align 4
  br label %147

36:                                               ; preds = %29
  %37 = load ptr, ptr %6, align 8, !tbaa !31
  %38 = getelementptr inbounds nuw %struct.FT_Outline_, ptr %37, i32 0, i32 4
  %39 = load ptr, ptr %38, align 8, !tbaa !41
  %40 = icmp ne ptr %39, null
  br i1 %40, label %41, label %46

41:                                               ; preds = %36
  %42 = load ptr, ptr %6, align 8, !tbaa !31
  %43 = getelementptr inbounds nuw %struct.FT_Outline_, ptr %42, i32 0, i32 2
  %44 = load ptr, ptr %43, align 8, !tbaa !42
  %45 = icmp ne ptr %44, null
  br i1 %45, label %47, label %46

46:                                               ; preds = %41, %36
  store i32 20, ptr %3, align 4
  store i32 1, ptr %9, align 4
  br label %147

47:                                               ; preds = %41
  %48 = load ptr, ptr %6, align 8, !tbaa !31
  %49 = getelementptr inbounds nuw %struct.FT_Outline_, ptr %48, i32 0, i32 1
  %50 = load i16, ptr %49, align 2, !tbaa !35
  %51 = zext i16 %50 to i32
  %52 = load ptr, ptr %6, align 8, !tbaa !31
  %53 = getelementptr inbounds nuw %struct.FT_Outline_, ptr %52, i32 0, i32 4
  %54 = load ptr, ptr %53, align 8, !tbaa !41
  %55 = load ptr, ptr %6, align 8, !tbaa !31
  %56 = getelementptr inbounds nuw %struct.FT_Outline_, ptr %55, i32 0, i32 0
  %57 = load i16, ptr %56, align 8, !tbaa !40
  %58 = zext i16 %57 to i32
  %59 = sub nsw i32 %58, 1
  %60 = sext i32 %59 to i64
  %61 = getelementptr inbounds i16, ptr %54, i64 %60
  %62 = load i16, ptr %61, align 2, !tbaa !43
  %63 = zext i16 %62 to i32
  %64 = add nsw i32 %63, 1
  %65 = icmp ne i32 %51, %64
  br i1 %65, label %66, label %67

66:                                               ; preds = %47
  store i32 20, ptr %3, align 4
  store i32 1, ptr %9, align 4
  br label %147

67:                                               ; preds = %47
  %68 = load ptr, ptr %5, align 8, !tbaa !25
  %69 = getelementptr inbounds nuw %struct.FT_Raster_Params_, ptr %68, i32 0, i32 2
  %70 = load i32, ptr %69, align 8, !tbaa !44
  %71 = and i32 %70, 2
  %72 = icmp ne i32 %71, 0
  br i1 %72, label %79, label %73

73:                                               ; preds = %67
  %74 = load ptr, ptr %5, align 8, !tbaa !25
  %75 = getelementptr inbounds nuw %struct.FT_Raster_Params_, ptr %74, i32 0, i32 2
  %76 = load i32, ptr %75, align 8, !tbaa !44
  %77 = and i32 %76, 1
  %78 = icmp ne i32 %77, 0
  br i1 %78, label %79, label %80

79:                                               ; preds = %73, %67
  store i32 19, ptr %3, align 4
  store i32 1, ptr %9, align 4
  br label %147

80:                                               ; preds = %73
  %81 = load ptr, ptr %7, align 8, !tbaa !34
  %82 = icmp ne ptr %81, null
  br i1 %82, label %84, label %83

83:                                               ; preds = %80
  store i32 6, ptr %3, align 4
  store i32 1, ptr %9, align 4
  br label %147

84:                                               ; preds = %80
  %85 = load ptr, ptr %7, align 8, !tbaa !34
  %86 = getelementptr inbounds nuw %struct.FT_Bitmap_, ptr %85, i32 0, i32 1
  %87 = load i32, ptr %86, align 4, !tbaa !45
  %88 = icmp ne i32 %87, 0
  br i1 %88, label %89, label %94

89:                                               ; preds = %84
  %90 = load ptr, ptr %7, align 8, !tbaa !34
  %91 = getelementptr inbounds nuw %struct.FT_Bitmap_, ptr %90, i32 0, i32 0
  %92 = load i32, ptr %91, align 8, !tbaa !47
  %93 = icmp ne i32 %92, 0
  br i1 %93, label %95, label %94

94:                                               ; preds = %89, %84
  store i32 0, ptr %3, align 4
  store i32 1, ptr %9, align 4
  br label %147

95:                                               ; preds = %89
  %96 = load ptr, ptr %7, align 8, !tbaa !34
  %97 = getelementptr inbounds nuw %struct.FT_Bitmap_, ptr %96, i32 0, i32 3
  %98 = load ptr, ptr %97, align 8, !tbaa !48
  %99 = icmp ne ptr %98, null
  br i1 %99, label %101, label %100

100:                                              ; preds = %95
  store i32 6, ptr %3, align 4
  store i32 1, ptr %9, align 4
  br label %147

101:                                              ; preds = %95
  %102 = getelementptr inbounds [1 x %struct.black_TWorker_], ptr %8, i64 0, i64 0
  %103 = getelementptr inbounds nuw %struct.black_TWorker_, ptr %102, i32 0, i32 21
  %104 = load ptr, ptr %6, align 8, !tbaa !31
  call void @llvm.memcpy.p0.p0.i64(ptr align 8 %103, ptr align 8 %104, i64 40, i1 false), !tbaa.struct !49
  %105 = load ptr, ptr %7, align 8, !tbaa !34
  %106 = getelementptr inbounds nuw %struct.FT_Bitmap_, ptr %105, i32 0, i32 0
  %107 = load i32, ptr %106, align 8, !tbaa !47
  %108 = sub nsw i32 %107, 1
  %109 = getelementptr inbounds [1 x %struct.black_TWorker_], ptr %8, i64 0, i64 0
  %110 = getelementptr inbounds nuw %struct.black_TWorker_, ptr %109, i32 0, i32 22
  store i32 %108, ptr %110, align 16, !tbaa !52
  %111 = load ptr, ptr %7, align 8, !tbaa !34
  %112 = getelementptr inbounds nuw %struct.FT_Bitmap_, ptr %111, i32 0, i32 1
  %113 = load i32, ptr %112, align 4, !tbaa !45
  %114 = sub nsw i32 %113, 1
  %115 = getelementptr inbounds [1 x %struct.black_TWorker_], ptr %8, i64 0, i64 0
  %116 = getelementptr inbounds nuw %struct.black_TWorker_, ptr %115, i32 0, i32 23
  store i32 %114, ptr %116, align 4, !tbaa !56
  %117 = load ptr, ptr %7, align 8, !tbaa !34
  %118 = getelementptr inbounds nuw %struct.FT_Bitmap_, ptr %117, i32 0, i32 2
  %119 = load i32, ptr %118, align 8, !tbaa !57
  %120 = getelementptr inbounds [1 x %struct.black_TWorker_], ptr %8, i64 0, i64 0
  %121 = getelementptr inbounds nuw %struct.black_TWorker_, ptr %120, i32 0, i32 24
  store i32 %119, ptr %121, align 8, !tbaa !58
  %122 = load ptr, ptr %7, align 8, !tbaa !34
  %123 = getelementptr inbounds nuw %struct.FT_Bitmap_, ptr %122, i32 0, i32 3
  %124 = load ptr, ptr %123, align 8, !tbaa !48
  %125 = getelementptr inbounds [1 x %struct.black_TWorker_], ptr %8, i64 0, i64 0
  %126 = getelementptr inbounds nuw %struct.black_TWorker_, ptr %125, i32 0, i32 25
  store ptr %124, ptr %126, align 16, !tbaa !59
  %127 = getelementptr inbounds [1 x %struct.black_TWorker_], ptr %8, i64 0, i64 0
  %128 = getelementptr inbounds nuw %struct.black_TWorker_, ptr %127, i32 0, i32 24
  %129 = load i32, ptr %128, align 8, !tbaa !58
  %130 = icmp sgt i32 %129, 0
  br i1 %130, label %131, label %144

131:                                              ; preds = %101
  %132 = getelementptr inbounds [1 x %struct.black_TWorker_], ptr %8, i64 0, i64 0
  %133 = getelementptr inbounds nuw %struct.black_TWorker_, ptr %132, i32 0, i32 22
  %134 = load i32, ptr %133, align 16, !tbaa !52
  %135 = getelementptr inbounds [1 x %struct.black_TWorker_], ptr %8, i64 0, i64 0
  %136 = getelementptr inbounds nuw %struct.black_TWorker_, ptr %135, i32 0, i32 24
  %137 = load i32, ptr %136, align 8, !tbaa !58
  %138 = mul nsw i32 %134, %137
  %139 = getelementptr inbounds [1 x %struct.black_TWorker_], ptr %8, i64 0, i64 0
  %140 = getelementptr inbounds nuw %struct.black_TWorker_, ptr %139, i32 0, i32 25
  %141 = load ptr, ptr %140, align 16, !tbaa !59
  %142 = sext i32 %138 to i64
  %143 = getelementptr inbounds i8, ptr %141, i64 %142
  store ptr %143, ptr %140, align 16, !tbaa !59
  br label %144

144:                                              ; preds = %131, %101
  %145 = getelementptr inbounds [1 x %struct.black_TWorker_], ptr %8, i64 0, i64 0
  %146 = call i32 @Render_Glyph(ptr noundef %145)
  store i32 %146, ptr %3, align 4
  store i32 1, ptr %9, align 4
  br label %147

147:                                              ; preds = %144, %100, %94, %83, %79, %66, %46, %35, %22, %18
  call void @llvm.lifetime.end.p0(i64 240, ptr %8) #5
  call void @llvm.lifetime.end.p0(i64 8, ptr %7) #5
  call void @llvm.lifetime.end.p0(i64 8, ptr %6) #5
  %148 = load i32, ptr %3, align 4
  ret i32 %148
}