; Function Attrs: nounwind uwtable
define internal i32 @ft_black_render(ptr noundef readnone %0, ptr noundef readonly captures(none) %1) #0 {
  %3 = alloca [1 x %struct.black_TWorker_], align 16
  %4 = getelementptr inbounds nuw i8, ptr %1, i64 8
  %5 = load ptr, ptr %4, align 8, !tbaa !12
  %6 = load ptr, ptr %1, align 8, !tbaa !17
  call void @llvm.lifetime.start.p0(i64 240, ptr nonnull %3) #10
  %.not = icmp eq ptr %0, null
  br i1 %.not, label %56, label %7

7:                                                ; preds = %2
  %.not28 = icmp eq ptr %5, null
  br i1 %.not28, label %56, label %8

8:                                                ; preds = %7
  %9 = getelementptr inbounds nuw i8, ptr %5, i64 2
  %10 = load i16, ptr %9, align 2, !tbaa !18
  %11 = zext i16 %10 to i32
  %12 = icmp eq i16 %10, 0
  br i1 %12, label %56, label %13

13:                                               ; preds = %8
  %14 = load i16, ptr %5, align 8, !tbaa !24
  %15 = zext i16 %14 to i64
  %16 = icmp eq i16 %14, 0
  br i1 %16, label %56, label %17

17:                                               ; preds = %13
  %18 = getelementptr inbounds nuw i8, ptr %5, i64 24
  %19 = load ptr, ptr %18, align 8, !tbaa !25
  %.not29 = icmp eq ptr %19, null
  br i1 %.not29, label %56, label %20

20:                                               ; preds = %17
  %21 = getelementptr inbounds nuw i8, ptr %5, i64 8
  %22 = load ptr, ptr %21, align 8, !tbaa !26
  %.not30 = icmp eq ptr %22, null
  br i1 %.not30, label %56, label %23

23:                                               ; preds = %20
  %24 = add nuw nsw i64 %15, 4294967295
  %25 = and i64 %24, 4294967295
  %26 = getelementptr inbounds nuw i16, ptr %19, i64 %25
  %27 = load i16, ptr %26, align 2, !tbaa !27
  %28 = zext i16 %27 to i32
  %29 = add nuw nsw i32 %28, 1
  %.not31 = icmp eq i32 %29, %11
  br i1 %.not31, label %30, label %56

30:                                               ; preds = %23
  %31 = getelementptr inbounds nuw i8, ptr %1, i64 16
  %32 = load i32, ptr %31, align 8, !tbaa !28
  %33 = and i32 %32, 3
  %or.cond = icmp eq i32 %33, 0
  br i1 %or.cond, label %34, label %56

34:                                               ; preds = %30
  %.not34 = icmp eq ptr %6, null
  br i1 %.not34, label %56, label %35

35:                                               ; preds = %34
  %36 = getelementptr inbounds nuw i8, ptr %6, i64 4
  %37 = load i32, ptr %36, align 4, !tbaa !29
  %.not35 = icmp eq i32 %37, 0
  br i1 %.not35, label %56, label %38

38:                                               ; preds = %35
  %39 = load i32, ptr %6, align 8, !tbaa !31
  %.not36 = icmp eq i32 %39, 0
  br i1 %.not36, label %56, label %40

40:                                               ; preds = %38
  %41 = getelementptr inbounds nuw i8, ptr %6, i64 16
  %42 = load ptr, ptr %41, align 8, !tbaa !32
  %.not37 = icmp eq ptr %42, null
  br i1 %.not37, label %56, label %43

43:                                               ; preds = %40
  %44 = getelementptr inbounds nuw i8, ptr %3, i64 136
  call void @llvm.memcpy.p0.p0.i64(ptr noundef nonnull align 8 dereferenceable(40) %44, ptr noundef nonnull align 8 dereferenceable(40) %5, i64 40, i1 false), !tbaa.struct !33
  %45 = add nsw i32 %39, -1
  %46 = getelementptr inbounds nuw i8, ptr %3, i64 176
  store i32 %45, ptr %46, align 16, !tbaa !37
  %47 = add nsw i32 %37, -1
  %48 = getelementptr inbounds nuw i8, ptr %3, i64 180
  store i32 %47, ptr %48, align 4, !tbaa !41
  %49 = getelementptr inbounds nuw i8, ptr %6, i64 8
  %50 = load i32, ptr %49, align 8, !tbaa !42
  %51 = getelementptr inbounds nuw i8, ptr %3, i64 184
  store i32 %50, ptr %51, align 8, !tbaa !43
  %52 = getelementptr inbounds nuw i8, ptr %3, i64 192
  %53 = icmp sgt i32 %50, 0
  %54 = mul nsw i32 %50, %45
  %narrow = select i1 %53, i32 %54, i32 0
  %storemerge.idx = sext i32 %narrow to i64
  %storemerge = getelementptr inbounds i8, ptr %42, i64 %storemerge.idx
  store ptr %storemerge, ptr %52, align 16, !tbaa !44
  %55 = call fastcc i32 @Render_Glyph(ptr noundef %3)
  br label %56

56:                                               ; preds = %40, %35, %38, %34, %30, %23, %17, %20, %8, %13, %7, %2, %43
  %.0 = phi i32 [ %55, %43 ], [ 96, %2 ], [ 20, %7 ], [ 0, %13 ], [ 0, %8 ], [ 20, %20 ], [ 20, %17 ], [ 20, %23 ], [ 19, %30 ], [ 6, %34 ], [ 0, %38 ], [ 0, %35 ], [ 6, %40 ]
  call void @llvm.lifetime.end.p0(i64 240, ptr nonnull %3) #10
  ret i32 %.0
}